; Function Attrs: mustprogress uwtable
define void @_ZN2cv6detail14FeatherBlender5blendERKNS_17_InputOutputArrayES4_(ptr noundef nonnull align 8 dereferenceable(352) %0, ptr noundef nonnull align 8 dereferenceable(24) %1, ptr noundef nonnull align 8 dereferenceable(24) %2) unnamed_addr #3 align 2 personality ptr @__gxx_personality_v0 {
  %4 = alloca %"class.cv::_InputArray", align 8
  %5 = alloca %"class.cv::_InputOutputArray", align 8
  %6 = alloca %"class.cv::_InputArray", align 8
  %7 = alloca %"class.cv::_InputArray", align 8
  %8 = alloca double, align 8
  %9 = alloca %"class.cv::_OutputArray", align 8
  call void @llvm.lifetime.start.p0(i64 24, ptr nonnull %4) #22
  %10 = getelementptr inbounds nuw i8, ptr %0, i64 272
  %11 = getelementptr inbounds nuw i8, ptr %4, i64 16
  store i32 0, ptr %11, align 8, !tbaa !79
  %12 = getelementptr inbounds nuw i8, ptr %4, i64 20
  store i32 0, ptr %12, align 4, !tbaa !80
  store i32 17432576, ptr %4, align 8, !tbaa !52
  %13 = getelementptr inbounds nuw i8, ptr %4, i64 8
  store ptr %10, ptr %13, align 8, !tbaa !55
  call void @llvm.lifetime.start.p0(i64 24, ptr nonnull %5) #22
  %14 = getelementptr inbounds nuw i8, ptr %0, i64 8
  %15 = getelementptr inbounds nuw i8, ptr %5, i64 8
  %16 = getelementptr inbounds nuw i8, ptr %5, i64 16
  store i64 0, ptr %16, align 8
  store i32 50987008, ptr %5, align 8, !tbaa !52
  store ptr %14, ptr %15, align 8, !tbaa !55
  call void @_ZN2cv6detail23normalizeUsingWeightMapERKNS_11_InputArrayERKNS_17_InputOutputArrayE(ptr noundef nonnull align 8 dereferenceable(24) %4, ptr noundef nonnull align 8 dereferenceable(24) %5)
  call void @llvm.lifetime.end.p0(i64 24, ptr nonnull %5) #22
  call void @llvm.lifetime.end.p0(i64 24, ptr nonnull %4) #22
  call void @llvm.lifetime.start.p0(i64 24, ptr nonnull %6) #22
  %17 = getelementptr inbounds nuw i8, ptr %6, i64 16
  store i32 0, ptr %17, align 8, !tbaa !79
  %18 = getelementptr inbounds nuw i8, ptr %6, i64 20
  store i32 0, ptr %18, align 4, !tbaa !80
  store i32 17432576, ptr %6, align 8, !tbaa !52
  %19 = getelementptr inbounds nuw i8, ptr %6, i64 8
  store ptr %10, ptr %19, align 8, !tbaa !55
  call void @llvm.lifetime.start.p0(i64 24, ptr nonnull %7) #22
  call void @llvm.lifetime.start.p0(i64 8, ptr nonnull %8) #22
  store double 0x3EE4F8B580000000, ptr %8, align 8, !tbaa !81
  %20 = getelementptr inbounds nuw i8, ptr %7, i64 16
  store i32 -1056833530, ptr %7, align 8, !tbaa !52
  %21 = getelementptr inbounds nuw i8, ptr %7, i64 8
  store ptr %8, ptr %21, align 8, !tbaa !55
  store i64 4294967297, ptr %20, align 8
  call void @llvm.lifetime.start.p0(i64 24, ptr nonnull %9) #22
  %22 = getelementptr inbounds nuw i8, ptr %0, i64 88
  %23 = getelementptr inbounds nuw i8, ptr %9, i64 8
  %24 = getelementptr inbounds nuw i8, ptr %9, i64 16
  store i64 0, ptr %24, align 8
  store i32 34209792, ptr %9, align 8, !tbaa !52
  store ptr %22, ptr %23, align 8, !tbaa !55
  call void @_ZN2cv7compareERKNS_11_InputArrayES2_RKNS_12_OutputArrayEi(ptr noundef nonnull align 8 dereferenceable(24) %6, ptr noundef nonnull align 8 dereferenceable(24) %7, ptr noundef nonnull align 8 dereferenceable(24) %9, i32 noundef 1)
  call void @llvm.lifetime.end.p0(i64 24, ptr nonnull %9) #22
  call void @llvm.lifetime.end.p0(i64 8, ptr nonnull %8) #22
  call void @llvm.lifetime.end.p0(i64 24, ptr nonnull %7) #22
  call void @llvm.lifetime.end.p0(i64 24, ptr nonnull %6) #22
  call void @_ZN2cv6detail7Blender5blendERKNS_17_InputOutputArrayES4_(ptr noundef nonnull align 8 dereferenceable(184) %0, ptr noundef nonnull align 8 dereferenceable(24) %1, ptr noundef nonnull align 8 dereferenceable(24) %2)
  ret void
}